target datalayout = "e-m:e-p270:32:32-p271:32:32-p272:64:64-i64:64-i128:128-f80:128-n8:16:32:64-S128"
target triple = "x86_64-unknown-linux-gnu"

%"struct.pbrt::TextureEvalContext" = type { %"class.pbrt::Point3", %"class.pbrt::Vector3", %"class.pbrt::Vector3", %"class.pbrt::Normal3", %"class.pbrt::Point2", float, float, float, float, i32 }
%"class.pbrt::Point3" = type { %"class.pbrt::Tuple3" }
%"class.pbrt::Tuple3" = type { float, float, float }
%"class.pbrt::Vector3" = type { %"class.pbrt::Tuple3.0" }
%"class.pbrt::Tuple3.0" = type { float, float, float }
%"class.pbrt::Normal3" = type { %"class.pbrt::Tuple3.1" }
%"class.pbrt::Tuple3.1" = type { float, float, float }
%"class.pbrt::Point2" = type { %"class.pbrt::Tuple2" }
%"class.pbrt::Tuple2" = type { float, float }
%"class.pbrt::TaggedPointer.7" = type { i64 }
%"class.pbrt::SampledWavelengths" = type { %"class.pstd::array", %"class.pstd::array" }
%"class.pstd::array" = type { [4 x float] }
%"class.pbrt::SampledSpectrum" = type { %"class.pstd::array" }
%class.anon.76 = type { ptr, ptr }

; Function Attrs: mustprogress nounwind uwtable
define linkonce_odr dso_local noundef i32 @_ZNK4pbrt13TaggedPointerIJNS_20SpectrumImageTextureENS_23GPUSpectrumImageTextureENS_18SpectrumMixTextureENS_27SpectrumDirectionMixTextureENS_21SpectrumScaledTextureENS_23SpectrumConstantTextureENS_21SpectrumBilerpTextureENS_27SpectrumCheckerboardTextureENS_13MarbleTextureENS_19SpectrumDotsTextureENS_19SpectrumPtexTextureENS_22GPUSpectrumPtexTextureEEE3TagEv(ptr noundef nonnull align 8 dereferenceable(8) %this) #5 comdat align 2 {
entry:
  %this.addr = alloca ptr, align 8
  store ptr %this, ptr %this.addr, align 8
  %this1 = load ptr, ptr %this.addr, align 8
  %bits = getelementptr inbounds %"class.pbrt::TaggedPointer.7", ptr %this1, i32 0, i32 0
  %0 = load i64, ptr %bits, align 8
  %and = and i64 %0, -144115188075855872
  %shr = lshr i64 %and, 57
  %conv = trunc i64 %shr to i32
  ret i32 %conv
}

; Function Attrs: mustprogress nounwind uwtable
define linkonce_odr dso_local noundef ptr @_ZNK4pbrt13TaggedPointerIJNS_20SpectrumImageTextureENS_23GPUSpectrumImageTextureENS_18SpectrumMixTextureENS_27SpectrumDirectionMixTextureENS_21SpectrumScaledTextureENS_23SpectrumConstantTextureENS_21SpectrumBilerpTextureENS_27SpectrumCheckerboardTextureENS_13MarbleTextureENS_19SpectrumDotsTextureENS_19SpectrumPtexTextureENS_22GPUSpectrumPtexTextureEEE3ptrEv(ptr noundef nonnull align 8 dereferenceable(8) %this) #5 comdat align 2 {
entry:
  %this.addr = alloca ptr, align 8
  store ptr %this, ptr %this.addr, align 8
  %this1 = load ptr, ptr %this.addr, align 8
  %bits = getelementptr inbounds %"class.pbrt::TaggedPointer.7", ptr %this1, i32 0, i32 0
  %0 = load i64, ptr %bits, align 8
  %and = and i64 %0, 144115188075855871
  %1 = inttoptr i64 %and to ptr
  ret ptr %1
}

; Function Attrs: mustprogress uwtable
define linkonce_odr dso_local { <2 x float>, <2 x float> } @_ZNK4pbrt13TaggedPointerIJNS_20SpectrumImageTextureENS_23GPUSpectrumImageTextureENS_18SpectrumMixTextureENS_27SpectrumDirectionMixTextureENS_21SpectrumScaledTextureENS_23SpectrumConstantTextureENS_21SpectrumBilerpTextureENS_27SpectrumCheckerboardTextureENS_13MarbleTextureENS_19SpectrumDotsTextureENS_19SpectrumPtexTextureENS_22GPUSpectrumPtexTextureEEE8DispatchIRZNKS_15SpectrumTexture8EvaluateENS_18TextureEvalContextENS_18SampledWavelengthsEEUlT_E_EEDcOSI_(ptr noundef nonnull align 8 dereferenceable(8) %this, ptr noundef nonnull align 8 dereferenceable(16) %func) #2 comdat align 2 {
entry:
  %retval = alloca %"class.pbrt::SampledSpectrum", align 4
  %this.addr = alloca ptr, align 8
  %func.addr = alloca ptr, align 8
  store ptr %this, ptr %this.addr, align 8
  store ptr %func, ptr %func.addr, align 8
  %this1 = load ptr, ptr %this.addr, align 8
  br label %do.body

do.body:                                          ; preds = %entry
  br label %do.end

do.end:                                           ; preds = %do.body
  %0 = load ptr, ptr %func.addr, align 8
  %call = call noundef ptr @_ZNK4pbrt13TaggedPointerIJNS_20SpectrumImageTextureENS_23GPUSpectrumImageTextureENS_18SpectrumMixTextureENS_27SpectrumDirectionMixTextureENS_21SpectrumScaledTextureENS_23SpectrumConstantTextureENS_21SpectrumBilerpTextureENS_27SpectrumCheckerboardTextureENS_13MarbleTextureENS_19SpectrumDotsTextureENS_19SpectrumPtexTextureENS_22GPUSpectrumPtexTextureEEE3ptrEv(ptr noundef nonnull align 8 dereferenceable(8) %this1)
  %call2 = call noundef i32 @_ZNK4pbrt13TaggedPointerIJNS_20SpectrumImageTextureENS_23GPUSpectrumImageTextureENS_18SpectrumMixTextureENS_27SpectrumDirectionMixTextureENS_21SpectrumScaledTextureENS_23SpectrumConstantTextureENS_21SpectrumBilerpTextureENS_27SpectrumCheckerboardTextureENS_13MarbleTextureENS_19SpectrumDotsTextureENS_19SpectrumPtexTextureENS_22GPUSpectrumPtexTextureEEE3TagEv(ptr noundef nonnull align 8 dereferenceable(8) %this1)
  %sub = sub i32 %call2, 1
  %call3 = call { <2 x float>, <2 x float> } @_ZN4pbrt6detail8DispatchIRZNKS_15SpectrumTexture8EvaluateENS_18TextureEvalContextENS_18SampledWavelengthsEEUlT_E_NS_15SampledSpectrumENS_20SpectrumImageTextureENS_23GPUSpectrumImageTextureENS_18SpectrumMixTextureENS_27SpectrumDirectionMixTextureENS_21SpectrumScaledTextureENS_23SpectrumConstantTextureENS_21SpectrumBilerpTextureENS_27SpectrumCheckerboardTextureEJNS_13MarbleTextureENS_19SpectrumDotsTextureENS_19SpectrumPtexTextureENS_22GPUSpectrumPtexTextureEEvEET0_OS5_PKvi(ptr noundef nonnull align 8 dereferenceable(16) %0, ptr noundef %call, i32 noundef %sub)
  %coerce.dive = getelementptr inbounds %"class.pbrt::SampledSpectrum", ptr %retval, i32 0, i32 0
  %coerce.dive4 = getelementptr inbounds %"class.pstd::array", ptr %coerce.dive, i32 0, i32 0
  %1 = getelementptr inbounds { <2 x float>, <2 x float> }, ptr %coerce.dive4, i32 0, i32 0
  %2 = extractvalue { <2 x float>, <2 x float> } %call3, 0
  store <2 x float> %2, ptr %1, align 4
  %3 = getelementptr inbounds { <2 x float>, <2 x float> }, ptr %coerce.dive4, i32 0, i32 1
  %4 = extractvalue { <2 x float>, <2 x float> } %call3, 1
  store <2 x float> %4, ptr %3, align 4
  %coerce.dive5 = getelementptr inbounds %"class.pbrt::SampledSpectrum", ptr %retval, i32 0, i32 0
  %coerce.dive6 = getelementptr inbounds %"class.pstd::array", ptr %coerce.dive5, i32 0, i32 0
  %5 = load { <2 x float>, <2 x float> }, ptr %coerce.dive6, align 4
  ret { <2 x float>, <2 x float> } %5
}

; Function Attrs: mustprogress uwtable
define linkonce_odr dso_local { <2 x float>, <2 x float> } @_ZNK4pbrt15SpectrumTexture8EvaluateENS_18TextureEvalContextENS_18SampledWavelengthsE(ptr noundef nonnull align 8 dereferenceable(8) %this, ptr noundef byval(%"struct.pbrt::TextureEvalContext") align 8 %ctx, ptr noundef byval(%"class.pbrt::SampledWavelengths") align 8 %lambda) #2 comdat align 2 {
entry:
  %retval = alloca %"class.pbrt::SampledSpectrum", align 4
  %this.addr = alloca ptr, align 8
  %eval = alloca %class.anon.76, align 8
  store ptr %this, ptr %this.addr, align 8
  %this1 = load ptr, ptr %this.addr, align 8
  %0 = getelementptr inbounds %class.anon.76, ptr %eval, i32 0, i32 0
  store ptr %ctx, ptr %0, align 8
  %1 = getelementptr inbounds %class.anon.76, ptr %eval, i32 0, i32 1
  store ptr %lambda, ptr %1, align 8
  %call = call { <2 x float>, <2 x float> } @_ZNK4pbrt13TaggedPointerIJNS_20SpectrumImageTextureENS_23GPUSpectrumImageTextureENS_18SpectrumMixTextureENS_27SpectrumDirectionMixTextureENS_21SpectrumScaledTextureENS_23SpectrumConstantTextureENS_21SpectrumBilerpTextureENS_27SpectrumCheckerboardTextureENS_13MarbleTextureENS_19SpectrumDotsTextureENS_19SpectrumPtexTextureENS_22GPUSpectrumPtexTextureEEE8DispatchIRZNKS_15SpectrumTexture8EvaluateENS_18TextureEvalContextENS_18SampledWavelengthsEEUlT_E_EEDcOSI_(ptr noundef nonnull align 8 dereferenceable(8) %this1, ptr noundef nonnull align 8 dereferenceable(16) %eval)
  %coerce.dive = getelementptr inbounds %"class.pbrt::SampledSpectrum", ptr %retval, i32 0, i32 0
  %coerce.dive2 = getelementptr inbounds %"class.pstd::array", ptr %coerce.dive, i32 0, i32 0
  %2 = getelementptr inbounds { <2 x float>, <2 x float> }, ptr %coerce.dive2, i32 0, i32 0
  %3 = extractvalue { <2 x float>, <2 x float> } %call, 0
  store <2 x float> %3, ptr %2, align 4
  %4 = getelementptr inbounds { <2 x float>, <2 x float> }, ptr %coerce.dive2, i32 0, i32 1
  %5 = extractvalue { <2 x float>, <2 x float> } %call, 1
  store <2 x float> %5, ptr %4, align 4
  %coerce.dive3 = getelementptr inbounds %"class.pbrt::SampledSpectrum", ptr %retval, i32 0, i32 0
  %coerce.dive4 = getelementptr inbounds %"class.pstd::array", ptr %coerce.dive3, i32 0, i32 0
  %6 = load { <2 x float>, <2 x float> }, ptr %coerce.dive4, align 4
  ret { <2 x float>, <2 x float> } %6
}

; Function Attrs: mustprogress uwtable
define dso_local { <2 x float>, <2 x float> } @_ZN4pbrt25UniversalTextureEvaluatorclENS_15SpectrumTextureENS_18TextureEvalContextENS_18SampledWavelengthsE(ptr noundef nonnull align 1 dereferenceable(1) %this, ptr noundef %tex, ptr noundef byval(%"struct.pbrt::TextureEvalContext") align 8 %ctx, ptr noundef byval(%"class.pbrt::SampledWavelengths") align 8 %lambda) #2 align 2 {
entry:
  %retval = alloca %"class.pbrt::SampledSpectrum", align 4
  %this.addr = alloca ptr, align 8
  %tex.indirect_addr = alloca ptr, align 8
  %agg.tmp = alloca %"struct.pbrt::TextureEvalContext", align 8
  %agg.tmp2 = alloca %"class.pbrt::SampledWavelengths", align 8
  store ptr %this, ptr %this.addr, align 8
  store ptr %tex, ptr %tex.indirect_addr, align 8
  call void @llvm.memcpy.p0.p0.i64(ptr align 4 %agg.tmp, ptr align 8 %ctx, i64 76, i1 false)
  call void @llvm.memcpy.p0.p0.i64(ptr align 4 %agg.tmp2, ptr align 8 %lambda, i64 32, i1 false)
  %call = call { <2 x float>, <2 x float> } @_ZNK4pbrt15SpectrumTexture8EvaluateENS_18TextureEvalContextENS_18SampledWavelengthsE(ptr noundef nonnull align 8 dereferenceable(8) %tex, ptr noundef byval(%"struct.pbrt::TextureEvalContext") align 8 %agg.tmp, ptr noundef byval(%"class.pbrt::SampledWavelengths") align 8 %agg.tmp2)
  %coerce.dive = getelementptr inbounds %"class.pbrt::SampledSpectrum", ptr %retval, i32 0, i32 0
  %coerce.dive3 = getelementptr inbounds %"class.pstd::array", ptr %coerce.dive, i32 0, i32 0
  %0 = getelementptr inbounds { <2 x float>, <2 x float> }, ptr %coerce.dive3, i32 0, i32 0
  %1 = extractvalue { <2 x float>, <2 x float> } %call, 0
  store <2 x float> %1, ptr %0, align 4
  %2 = getelementptr inbounds { <2 x float>, <2 x float> }, ptr %coerce.dive3, i32 0, i32 1
  %3 = extractvalue { <2 x float>, <2 x float> } %call, 1
  store <2 x float> %3, ptr %2, align 4
  %coerce.dive4 = getelementptr inbounds %"class.pbrt::SampledSpectrum", ptr %retval, i32 0, i32 0
  %coerce.dive5 = getelementptr inbounds %"class.pstd::array", ptr %coerce.dive4, i32 0, i32 0
  %4 = load { <2 x float>, <2 x float> }, ptr %coerce.dive5, align 4
  ret { <2 x float>, <2 x float> } %4
}