; Function Attrs: mustprogress uwtable
define dso_local { <2 x float>, <2 x float> } @_ZN4pbrt25UniversalTextureEvaluatorclENS_15SpectrumTextureENS_18TextureEvalContextENS_18SampledWavelengthsE(ptr nocapture noundef nonnull readnone align 1 dereferenceable(1) %this, ptr nocapture noundef readonly %tex, ptr nocapture noundef readonly byval(%"struct.pbrt::TextureEvalContext") align 8 %ctx, ptr nocapture noundef readonly byval(%"class.pbrt::SampledWavelengths") align 8 %lambda) local_unnamed_addr #1 align 2 {
entry:
  %eval.i = alloca %class.anon.76, align 8
  %agg.tmp22 = alloca %"class.pbrt::SampledWavelengths", align 8
  %agg.tmp1 = alloca %"struct.pbrt::TextureEvalContext", align 8
  call void @llvm.lifetime.start.p0(i64 76, ptr nonnull %agg.tmp1)
  call void @llvm.memcpy.p0.p0.i64(ptr noundef nonnull align 8 dereferenceable(76) %agg.tmp1, ptr noundef nonnull align 8 dereferenceable(76) %ctx, i64 76, i1 false)
  call void @llvm.lifetime.start.p0(i64 32, ptr nonnull %agg.tmp22)
  call void @llvm.memcpy.p0.p0.i64(ptr noundef nonnull align 8 dereferenceable(32) %agg.tmp22, ptr noundef nonnull align 8 dereferenceable(32) %lambda, i64 32, i1 false)
  call void @llvm.lifetime.start.p0(i64 16, ptr nonnull %eval.i)
  store ptr %agg.tmp1, ptr %eval.i, align 8
  %0 = getelementptr inbounds i8, ptr %eval.i, i64 8
  store ptr %agg.tmp22, ptr %0, align 8
  %1 = load i64, ptr %tex, align 8
  %and.i.i = and i64 %1, 144115188075855871
  %2 = inttoptr i64 %and.i.i to ptr
  %shr.i.i = lshr i64 %1, 57
  %conv.i.i = trunc i64 %shr.i.i to i32
  %sub.i.i = add nsw i32 %conv.i.i, -1
  %call3.i.i = call { <2 x float>, <2 x float> } @_ZN4pbrt6detail8DispatchIRZNKS_15SpectrumTexture8EvaluateENS_18TextureEvalContextENS_18SampledWavelengthsEEUlT_E_NS_15SampledSpectrumENS_20SpectrumImageTextureENS_23GPUSpectrumImageTextureENS_18SpectrumMixTextureENS_27SpectrumDirectionMixTextureENS_21SpectrumScaledTextureENS_23SpectrumConstantTextureENS_21SpectrumBilerpTextureENS_27SpectrumCheckerboardTextureEJNS_13MarbleTextureENS_19SpectrumDotsTextureENS_19SpectrumPtexTextureENS_22GPUSpectrumPtexTextureEEvEET0_OS5_PKvi(ptr noundef nonnull align 8 dereferenceable(16) %eval.i, ptr noundef %2, i32 noundef %sub.i.i)
  call void @llvm.lifetime.end.p0(i64 76, ptr nonnull %agg.tmp1)
  call void @llvm.lifetime.end.p0(i64 32, ptr nonnull %agg.tmp22)
  call void @llvm.lifetime.end.p0(i64 16, ptr nonnull %eval.i)
  ret { <2 x float>, <2 x float> } %call3.i.i
}